target datalayout = "e-m:e-p270:32:32-p271:32:32-p272:64:64-i64:64-i128:128-f80:128-n8:16:32:64-S128"
target triple = "x86_64-pc-linux-gnu"

%struct.IndexScanState = type { %struct.ScanState, ptr, ptr, ptr, i32, ptr, i32, ptr, i32, i8, ptr, ptr, ptr, ptr, i8, ptr, ptr, ptr, ptr, ptr, i64 }
%struct.ScanState = type { %struct.PlanState, ptr, ptr, ptr }
%struct.PlanState = type { i32, ptr, ptr, ptr, ptr, ptr, ptr, ptr, ptr, ptr, ptr, ptr, ptr, ptr, ptr, ptr, ptr, ptr, i8, ptr, ptr, ptr, ptr, ptr, i8, i8, i8, i8, i8, i8, i8, i8 }
%struct.EState = type { i32, i32, ptr, ptr, ptr, i32, ptr, ptr, ptr, ptr, ptr, ptr, ptr, ptr, ptr, ptr, i32, ptr, ptr, ptr, ptr, ptr, ptr, ptr, ptr, ptr, ptr, i64, i64, i32, i32, i8, ptr, ptr, ptr, ptr, ptr, i8, i32, i32, ptr, i32, ptr, ptr, ptr, ptr }
%struct.Plan = type { i32, i32, double, double, double, i32, i8, i8, i8, i32, ptr, ptr, ptr, ptr, ptr, ptr, ptr }
%struct.ParallelContext = type { %struct.dlist_node, i32, i32, i32, i32, ptr, ptr, ptr, %struct.shm_toc_estimator, ptr, ptr, ptr, ptr, i32, ptr }
%struct.dlist_node = type { ptr, ptr }
%struct.shm_toc_estimator = type { i64, i64 }

; Function Attrs: nounwind uwtable
define dso_local void @ExecIndexScanInitializeDSM(ptr noundef %0, ptr noundef %1) #0 {
  %3 = alloca ptr, align 8
  %4 = alloca ptr, align 8
  %5 = alloca ptr, align 8
  %6 = alloca ptr, align 8
  store ptr %0, ptr %3, align 8
  store ptr %1, ptr %4, align 8
  call void @llvm.lifetime.start.p0(i64 8, ptr %5) #7
  %7 = load ptr, ptr %3, align 8
  %8 = getelementptr inbounds nuw %struct.IndexScanState, ptr %7, i32 0, i32 0
  %9 = getelementptr inbounds nuw %struct.ScanState, ptr %8, i32 0, i32 0
  %10 = getelementptr inbounds nuw %struct.PlanState, ptr %9, i32 0, i32 2
  %11 = load ptr, ptr %10, align 8
  store ptr %11, ptr %5, align 8
  call void @llvm.lifetime.start.p0(i64 8, ptr %6) #7
  %12 = load ptr, ptr %4, align 8
  %13 = getelementptr inbounds nuw %struct.ParallelContext, ptr %12, i32 0, i32 11
  %14 = load ptr, ptr %13, align 8
  %15 = load ptr, ptr %3, align 8
  %16 = getelementptr inbounds nuw %struct.IndexScanState, ptr %15, i32 0, i32 20
  %17 = load i64, ptr %16, align 8
  %18 = call ptr @shm_toc_allocate(ptr noundef %14, i64 noundef %17)
  store ptr %18, ptr %6, align 8
  %19 = load ptr, ptr %3, align 8
  %20 = getelementptr inbounds nuw %struct.IndexScanState, ptr %19, i32 0, i32 0
  %21 = getelementptr inbounds nuw %struct.ScanState, ptr %20, i32 0, i32 1
  %22 = load ptr, ptr %21, align 8
  %23 = load ptr, ptr %3, align 8
  %24 = getelementptr inbounds nuw %struct.IndexScanState, ptr %23, i32 0, i32 11
  %25 = load ptr, ptr %24, align 8
  %26 = load ptr, ptr %5, align 8
  %27 = getelementptr inbounds nuw %struct.EState, ptr %26, i32 0, i32 2
  %28 = load ptr, ptr %27, align 8
  %29 = load ptr, ptr %6, align 8
  call void @index_parallelscan_initialize(ptr noundef %22, ptr noundef %25, ptr noundef %28, ptr noundef %29)
  %30 = load ptr, ptr %4, align 8
  %31 = getelementptr inbounds nuw %struct.ParallelContext, ptr %30, i32 0, i32 11
  %32 = load ptr, ptr %31, align 8
  %33 = load ptr, ptr %3, align 8
  %34 = getelementptr inbounds nuw %struct.IndexScanState, ptr %33, i32 0, i32 0
  %35 = getelementptr inbounds nuw %struct.ScanState, ptr %34, i32 0, i32 0
  %36 = getelementptr inbounds nuw %struct.PlanState, ptr %35, i32 0, i32 1
  %37 = load ptr, ptr %36, align 8
  %38 = getelementptr inbounds nuw %struct.Plan, ptr %37, i32 0, i32 9
  %39 = load i32, ptr %38, align 8
  %40 = sext i32 %39 to i64
  %41 = load ptr, ptr %6, align 8
  call void @shm_toc_insert(ptr noundef %32, i64 noundef %40, ptr noundef %41)
  %42 = load ptr, ptr %3, align 8
  %43 = getelementptr inbounds nuw %struct.IndexScanState, ptr %42, i32 0, i32 0
  %44 = getelementptr inbounds nuw %struct.ScanState, ptr %43, i32 0, i32 1
  %45 = load ptr, ptr %44, align 8
  %46 = load ptr, ptr %3, align 8
  %47 = getelementptr inbounds nuw %struct.IndexScanState, ptr %46, i32 0, i32 11
  %48 = load ptr, ptr %47, align 8
  %49 = load ptr, ptr %3, align 8
  %50 = getelementptr inbounds nuw %struct.IndexScanState, ptr %49, i32 0, i32 4
  %51 = load i32, ptr %50, align 8
  %52 = load ptr, ptr %3, align 8
  %53 = getelementptr inbounds nuw %struct.IndexScanState, ptr %52, i32 0, i32 6
  %54 = load i32, ptr %53, align 8
  %55 = load ptr, ptr %6, align 8
  %56 = call ptr @index_beginscan_parallel(ptr noundef %45, ptr noundef %48, i32 noundef %51, i32 noundef %54, ptr noundef %55)
  %57 = load ptr, ptr %3, align 8
  %58 = getelementptr inbounds nuw %struct.IndexScanState, ptr %57, i32 0, i32 12
  store ptr %56, ptr %58, align 8
  %59 = load ptr, ptr %3, align 8
  %60 = getelementptr inbounds nuw %struct.IndexScanState, ptr %59, i32 0, i32 8
  %61 = load i32, ptr %60, align 8
  %62 = icmp eq i32 %61, 0
  br i1 %62, label %68, label %63

63:                                               ; preds = %2
  %64 = load ptr, ptr %3, align 8
  %65 = getelementptr inbounds nuw %struct.IndexScanState, ptr %64, i32 0, i32 9
  %66 = load i8, ptr %65, align 4, !range !6, !noundef !7
  %67 = trunc i8 %66 to i1
  br i1 %67, label %68, label %84

68:                                               ; preds = %63, %2
  %69 = load ptr, ptr %3, align 8
  %70 = getelementptr inbounds nuw %struct.IndexScanState, ptr %69, i32 0, i32 12
  %71 = load ptr, ptr %70, align 8
  %72 = load ptr, ptr %3, align 8
  %73 = getelementptr inbounds nuw %struct.IndexScanState, ptr %72, i32 0, i32 3
  %74 = load ptr, ptr %73, align 8
  %75 = load ptr, ptr %3, align 8
  %76 = getelementptr inbounds nuw %struct.IndexScanState, ptr %75, i32 0, i32 4
  %77 = load i32, ptr %76, align 8
  %78 = load ptr, ptr %3, align 8
  %79 = getelementptr inbounds nuw %struct.IndexScanState, ptr %78, i32 0, i32 5
  %80 = load ptr, ptr %79, align 8
  %81 = load ptr, ptr %3, align 8
  %82 = getelementptr inbounds nuw %struct.IndexScanState, ptr %81, i32 0, i32 6
  %83 = load i32, ptr %82, align 8
  call void @index_rescan(ptr noundef %71, ptr noundef %74, i32 noundef %77, ptr noundef %80, i32 noundef %83)
  br label %84

84:                                               ; preds = %68, %63
  call void @llvm.lifetime.end.p0(i64 8, ptr %6) #7
  call void @llvm.lifetime.end.p0(i64 8, ptr %5) #7
  ret void
}