; Function Attrs: nounwind uwtable
define dso_local void @ExecIndexScanInitializeDSM(ptr noundef captures(none) initializes((304, 312)) %0, ptr noundef readonly captures(none) %1) local_unnamed_addr #0 {
  %3 = getelementptr inbounds nuw i8, ptr %0, i64 16
  %4 = load ptr, ptr %3, align 8
  %5 = getelementptr inbounds nuw i8, ptr %1, i64 88
  %6 = load ptr, ptr %5, align 8
  %7 = getelementptr inbounds nuw i8, ptr %0, i64 368
  %8 = load i64, ptr %7, align 8
  %9 = tail call ptr @shm_toc_allocate(ptr noundef %6, i64 noundef %8) #7
  %10 = getelementptr inbounds nuw i8, ptr %0, i64 200
  %11 = load ptr, ptr %10, align 8
  %12 = getelementptr inbounds nuw i8, ptr %0, i64 296
  %13 = load ptr, ptr %12, align 8
  %14 = getelementptr inbounds nuw i8, ptr %4, i64 8
  %15 = load ptr, ptr %14, align 8
  tail call void @index_parallelscan_initialize(ptr noundef %11, ptr noundef %13, ptr noundef %15, ptr noundef %9) #7
  %16 = load ptr, ptr %5, align 8
  %17 = getelementptr inbounds nuw i8, ptr %0, i64 8
  %18 = load ptr, ptr %17, align 8
  %19 = getelementptr inbounds nuw i8, ptr %18, i64 40
  %20 = load i32, ptr %19, align 8
  %21 = sext i32 %20 to i64
  tail call void @shm_toc_insert(ptr noundef %16, i64 noundef %21, ptr noundef %9) #7
  %22 = load ptr, ptr %10, align 8
  %23 = load ptr, ptr %12, align 8
  %24 = getelementptr inbounds nuw i8, ptr %0, i64 248
  %25 = load i32, ptr %24, align 8
  %26 = getelementptr inbounds nuw i8, ptr %0, i64 264
  %27 = load i32, ptr %26, align 8
  %28 = tail call ptr @index_beginscan_parallel(ptr noundef %22, ptr noundef %23, i32 noundef %25, i32 noundef %27, ptr noundef %9) #7
  %29 = getelementptr inbounds nuw i8, ptr %0, i64 304
  store ptr %28, ptr %29, align 8
  %30 = getelementptr inbounds nuw i8, ptr %0, i64 280
  %31 = load i32, ptr %30, align 8
  %32 = icmp eq i32 %31, 0
  br i1 %32, label %37, label %33

33:                                               ; preds = %2
  %34 = getelementptr inbounds nuw i8, ptr %0, i64 284
  %35 = load i8, ptr %34, align 4, !range !4, !noundef !5
  %36 = trunc nuw i8 %35 to i1
  br i1 %36, label %37, label %44

37:                                               ; preds = %33, %2
  %38 = getelementptr inbounds nuw i8, ptr %0, i64 240
  %39 = load ptr, ptr %38, align 8
  %40 = load i32, ptr %24, align 8
  %41 = getelementptr inbounds nuw i8, ptr %0, i64 256
  %42 = load ptr, ptr %41, align 8
  %43 = load i32, ptr %26, align 8
  tail call void @index_rescan(ptr noundef %28, ptr noundef %39, i32 noundef %40, ptr noundef %42, i32 noundef %43) #7
  br label %44

44:                                               ; preds = %37, %33
  ret void
}